target datalayout = "e-m:e-p270:32:32-p271:32:32-p272:64:64-i64:64-i128:128-f80:128-n8:16:32:64-S128"
target triple = "x86_64-pc-linux-gnu"

%"class.llvm::pdb::NativeSession" = type { %"class.llvm::pdb::IPDBSession", %"class.std::unique_ptr", %"class.std::unique_ptr.2", %"class.llvm::pdb::SymbolCache", i32, i64, %"class.llvm::RecyclingAllocator", %"class.llvm::IntervalMap" }
%"class.llvm::pdb::IPDBSession" = type { ptr }
%"class.std::unique_ptr" = type { %"struct.std::__uniq_ptr_data" }
%"struct.std::__uniq_ptr_data" = type { %"class.std::__uniq_ptr_impl" }
%"class.std::__uniq_ptr_impl" = type { %"class.std::tuple" }
%"class.std::tuple" = type { %"struct.std::_Tuple_impl" }
%"struct.std::_Tuple_impl" = type { %"struct.std::_Head_base.1" }
%"struct.std::_Head_base.1" = type { ptr }
%"class.std::unique_ptr.2" = type { %"struct.std::__uniq_ptr_data.3" }
%"struct.std::__uniq_ptr_data.3" = type { %"class.std::__uniq_ptr_impl.4" }
%"class.std::__uniq_ptr_impl.4" = type { %"class.std::tuple.5" }
%"class.std::tuple.5" = type { %"struct.std::_Tuple_impl.6" }
%"struct.std::_Tuple_impl.6" = type { %"struct.std::_Head_base.9" }
%"struct.std::_Head_base.9" = type { ptr }
%"class.llvm::pdb::SymbolCache" = type { ptr, ptr, %"class.std::vector", %"class.llvm::DenseMap", %"class.llvm::DenseMap.10", %"class.std::vector.13", %"class.std::vector.18", %"class.llvm::DenseMap.23", %"class.llvm::DenseMap.23", %"class.llvm::DenseMap.26", %"class.llvm::DenseMap.26", %"class.llvm::DenseMap.29", %"class.llvm::DenseMap.32" }
%"class.std::vector" = type { %"struct.std::_Vector_base" }
%"struct.std::_Vector_base" = type { %"struct.std::_Vector_base<std::unique_ptr<llvm::pdb::NativeRawSymbol>, std::allocator<std::unique_ptr<llvm::pdb::NativeRawSymbol>>>::_Vector_impl" }
%"struct.std::_Vector_base<std::unique_ptr<llvm::pdb::NativeRawSymbol>, std::allocator<std::unique_ptr<llvm::pdb::NativeRawSymbol>>>::_Vector_impl" = type { %"struct.std::_Vector_base<std::unique_ptr<llvm::pdb::NativeRawSymbol>, std::allocator<std::unique_ptr<llvm::pdb::NativeRawSymbol>>>::_Vector_impl_data" }
%"struct.std::_Vector_base<std::unique_ptr<llvm::pdb::NativeRawSymbol>, std::allocator<std::unique_ptr<llvm::pdb::NativeRawSymbol>>>::_Vector_impl_data" = type { ptr, ptr, ptr }
%"class.llvm::DenseMap" = type <{ ptr, i32, i32, i32, [4 x i8] }>
%"class.llvm::DenseMap.10" = type <{ ptr, i32, i32, i32, [4 x i8] }>
%"class.std::vector.13" = type { %"struct.std::_Vector_base.14" }
%"struct.std::_Vector_base.14" = type { %"struct.std::_Vector_base<unsigned int, std::allocator<unsigned int>>::_Vector_impl" }
%"struct.std::_Vector_base<unsigned int, std::allocator<unsigned int>>::_Vector_impl" = type { %"struct.std::_Vector_base<unsigned int, std::allocator<unsigned int>>::_Vector_impl_data" }
%"struct.std::_Vector_base<unsigned int, std::allocator<unsigned int>>::_Vector_impl_data" = type { ptr, ptr, ptr }
%"class.std::vector.18" = type { %"struct.std::_Vector_base.19" }
%"struct.std::_Vector_base.19" = type { %"struct.std::_Vector_base<std::unique_ptr<llvm::pdb::NativeSourceFile>, std::allocator<std::unique_ptr<llvm::pdb::NativeSourceFile>>>::_Vector_impl" }
%"struct.std::_Vector_base<std::unique_ptr<llvm::pdb::NativeSourceFile>, std::allocator<std::unique_ptr<llvm::pdb::NativeSourceFile>>>::_Vector_impl" = type { %"struct.std::_Vector_base<std::unique_ptr<llvm::pdb::NativeSourceFile>, std::allocator<std::unique_ptr<llvm::pdb::NativeSourceFile>>>::_Vector_impl_data" }
%"struct.std::_Vector_base<std::unique_ptr<llvm::pdb::NativeSourceFile>, std::allocator<std::unique_ptr<llvm::pdb::NativeSourceFile>>>::_Vector_impl_data" = type { ptr, ptr, ptr }
%"class.llvm::DenseMap.23" = type <{ ptr, i32, i32, i32, [4 x i8] }>
%"class.llvm::DenseMap.26" = type <{ ptr, i32, i32, i32, [4 x i8] }>
%"class.llvm::DenseMap.29" = type <{ ptr, i32, i32, i32, [4 x i8] }>
%"class.llvm::DenseMap.32" = type <{ ptr, i32, i32, i32, [4 x i8] }>
%"class.llvm::RecyclingAllocator" = type { %"class.llvm::Recycler", %"class.llvm::BumpPtrAllocatorImpl" }
%"class.llvm::Recycler" = type { ptr }
%"class.llvm::BumpPtrAllocatorImpl" = type { ptr, ptr, %"class.llvm::SmallVector", %"class.llvm::SmallVector.36", i64, i64 }
%"class.llvm::SmallVector" = type { %"class.llvm::SmallVectorImpl", %"struct.llvm::SmallVectorStorage" }
%"class.llvm::SmallVectorImpl" = type { %"class.llvm::SmallVectorTemplateBase" }
%"class.llvm::SmallVectorTemplateBase" = type { %"class.llvm::SmallVectorTemplateCommon" }
%"class.llvm::SmallVectorTemplateCommon" = type { %"class.llvm::SmallVectorBase" }
%"class.llvm::SmallVectorBase" = type { ptr, i32, i32 }
%"struct.llvm::SmallVectorStorage" = type { [32 x i8] }
%"class.llvm::SmallVector.36" = type { %"class.llvm::SmallVectorImpl.37" }
%"class.llvm::SmallVectorImpl.37" = type { %"class.llvm::SmallVectorTemplateBase.38" }
%"class.llvm::SmallVectorTemplateBase.38" = type { %"class.llvm::SmallVectorTemplateCommon.39" }
%"class.llvm::SmallVectorTemplateCommon.39" = type { %"class.llvm::SmallVectorBase" }
%"class.llvm::IntervalMap" = type { %union.anon, i32, i32, ptr }
%union.anon = type { %"class.llvm::IntervalMapImpl::LeafNode" }
%"class.llvm::IntervalMapImpl::LeafNode" = type { %"class.llvm::IntervalMapImpl::NodeBase" }
%"class.llvm::IntervalMapImpl::NodeBase" = type { [8 x %"struct.std::pair"], [8 x i16] }
%"struct.std::pair" = type { i64, i64 }

; Function Attrs: mustprogress nounwind uwtable
define dso_local void @_ZN4llvm3pdb13NativeSession19initializeExeSymbolEv(ptr noundef nonnull align 8 dereferenceable(584) %0) #0 align 2 {
  %2 = alloca ptr, align 8
  store ptr %0, ptr %2, align 8
  %3 = load ptr, ptr %2, align 8
  %4 = getelementptr inbounds nuw %"class.llvm::pdb::NativeSession", ptr %3, i32 0, i32 4
  %5 = load i32, ptr %4, align 8
  %6 = icmp eq i32 %5, 0
  br i1 %6, label %7, label %11

7:                                                ; preds = %1
  %8 = getelementptr inbounds nuw %"class.llvm::pdb::NativeSession", ptr %3, i32 0, i32 3
  %9 = call noundef i32 @_ZNK4llvm3pdb11SymbolCache12createSymbolINS0_15NativeExeSymbolEJEEEjDpOT0_(ptr noundef nonnull align 8 dereferenceable(280) %8)
  %10 = getelementptr inbounds nuw %"class.llvm::pdb::NativeSession", ptr %3, i32 0, i32 4
  store i32 %9, ptr %10, align 8
  br label %11

11:                                               ; preds = %7, %1
  ret void
}