; Function Attrs: mustprogress nounwind uwtable
define dso_local void @_ZN4llvm3pdb13NativeSession19initializeExeSymbolEv(ptr noundef nonnull align 8 dereferenceable(584) %0) local_unnamed_addr #0 align 2 {
  %2 = getelementptr inbounds nuw i8, ptr %0, i64 304
  %3 = load i32, ptr %2, align 8
  %4 = icmp eq i32 %3, 0
  br i1 %4, label %5, label %8

5:                                                ; preds = %1
  %6 = getelementptr inbounds nuw i8, ptr %0, i64 24
  %7 = tail call noundef i32 @_ZNK4llvm3pdb11SymbolCache12createSymbolINS0_15NativeExeSymbolEJEEEjDpOT0_(ptr noundef nonnull align 8 dereferenceable(280) %6)
  store i32 %7, ptr %2, align 8
  br label %8

8:                                                ; preds = %5, %1
  ret void
}